target datalayout = "e-m:e-p270:32:32-p271:32:32-p272:64:64-i64:64-i128:128-f80:128-n8:16:32:64-S128"
target triple = "x86_64-pc-linux-gnu"

%struct.mlib_affine_param = type { ptr, ptr, ptr, ptr, ptr, ptr, ptr, ptr, ptr, i32, i32, i32, i32, i32, i32, i32, ptr, i32 }

; Function Attrs: nounwind uwtable
define hidden i32 @mlib_ImageAffine_d64_1ch_bl(ptr noundef %0) #0 {
  %2 = alloca ptr, align 8
  %3 = alloca ptr, align 8
  %4 = alloca ptr, align 8
  %5 = alloca ptr, align 8
  %6 = alloca ptr, align 8
  %7 = alloca ptr, align 8
  %8 = alloca ptr, align 8
  %9 = alloca i32, align 4
  %10 = alloca i32, align 4
  %11 = alloca i32, align 4
  %12 = alloca i32, align 4
  %13 = alloca i32, align 4
  %14 = alloca i32, align 4
  %15 = alloca i32, align 4
  %16 = alloca i32, align 4
  %17 = alloca i32, align 4
  %18 = alloca i32, align 4
  %19 = alloca ptr, align 8
  %20 = alloca ptr, align 8
  %21 = alloca ptr, align 8
  %22 = alloca i32, align 4
  %23 = alloca i32, align 4
  %24 = alloca i32, align 4
  %25 = alloca ptr, align 8
  %26 = alloca double, align 8
  %27 = alloca i32, align 4
  %28 = alloca double, align 8
  %29 = alloca double, align 8
  %30 = alloca double, align 8
  %31 = alloca double, align 8
  %32 = alloca double, align 8
  %33 = alloca double, align 8
  %34 = alloca double, align 8
  %35 = alloca double, align 8
  %36 = alloca double, align 8
  %37 = alloca double, align 8
  %38 = alloca double, align 8
  store ptr %0, ptr %2, align 8
  %39 = load ptr, ptr %2, align 8
  %40 = getelementptr inbounds %struct.mlib_affine_param, ptr %39, i32 0, i32 5
  %41 = load ptr, ptr %40, align 8
  store ptr %41, ptr %3, align 8
  %42 = load ptr, ptr %2, align 8
  %43 = getelementptr inbounds %struct.mlib_affine_param, ptr %42, i32 0, i32 6
  %44 = load ptr, ptr %43, align 8
  store ptr %44, ptr %4, align 8
  %45 = load ptr, ptr %2, align 8
  %46 = getelementptr inbounds %struct.mlib_affine_param, ptr %45, i32 0, i32 7
  %47 = load ptr, ptr %46, align 8
  store ptr %47, ptr %5, align 8
  %48 = load ptr, ptr %2, align 8
  %49 = getelementptr inbounds %struct.mlib_affine_param, ptr %48, i32 0, i32 8
  %50 = load ptr, ptr %49, align 8
  store ptr %50, ptr %6, align 8
  %51 = load ptr, ptr %2, align 8
  %52 = getelementptr inbounds %struct.mlib_affine_param, ptr %51, i32 0, i32 4
  %53 = load ptr, ptr %52, align 8
  store ptr %53, ptr %7, align 8
  %54 = load ptr, ptr %2, align 8
  %55 = getelementptr inbounds %struct.mlib_affine_param, ptr %54, i32 0, i32 3
  %56 = load ptr, ptr %55, align 8
  store ptr %56, ptr %8, align 8
  %57 = load ptr, ptr %2, align 8
  %58 = getelementptr inbounds %struct.mlib_affine_param, ptr %57, i32 0, i32 15
  %59 = load i32, ptr %58, align 8
  store i32 %59, ptr %9, align 4
  %60 = load ptr, ptr %2, align 8
  %61 = getelementptr inbounds %struct.mlib_affine_param, ptr %60, i32 0, i32 9
  %62 = load i32, ptr %61, align 8
  store i32 %62, ptr %14, align 4
  %63 = load ptr, ptr %2, align 8
  %64 = getelementptr inbounds %struct.mlib_affine_param, ptr %63, i32 0, i32 10
  %65 = load i32, ptr %64, align 4
  store i32 %65, ptr %15, align 4
  %66 = load ptr, ptr %2, align 8
  %67 = getelementptr inbounds %struct.mlib_affine_param, ptr %66, i32 0, i32 11
  %68 = load i32, ptr %67, align 8
  store i32 %68, ptr %16, align 4
  %69 = load ptr, ptr %2, align 8
  %70 = getelementptr inbounds %struct.mlib_affine_param, ptr %69, i32 0, i32 12
  %71 = load i32, ptr %70, align 4
  store i32 %71, ptr %17, align 4
  %72 = load ptr, ptr %2, align 8
  %73 = getelementptr inbounds %struct.mlib_affine_param, ptr %72, i32 0, i32 16
  %74 = load ptr, ptr %73, align 8
  store ptr %74, ptr %19, align 8
  %75 = load ptr, ptr %2, align 8
  %76 = getelementptr inbounds %struct.mlib_affine_param, ptr %75, i32 0, i32 14
  %77 = load i32, ptr %76, align 4
  store i32 %77, ptr %24, align 4
  store double 0x3EF0000000000000, ptr %26, align 8
  %78 = load i32, ptr %24, align 4
  %79 = sext i32 %78 to i64
  %80 = udiv i64 %79, 8
  %81 = trunc i64 %80 to i32
  store i32 %81, ptr %24, align 4
  %82 = load i32, ptr %24, align 4
  %83 = add nsw i32 %82, 1
  store i32 %83, ptr %27, align 4
  %84 = load i32, ptr %14, align 4
  store i32 %84, ptr %18, align 4
  br label %85

85:                                               ; preds = %306, %1
  %86 = load i32, ptr %18, align 4
  %87 = load i32, ptr %15, align 4
  %88 = icmp sle i32 %86, %87
  br i1 %88, label %89, label %309

89:                                               ; preds = %85
  %90 = load i32, ptr %9, align 4
  %91 = load ptr, ptr %7, align 8
  %92 = sext i32 %90 to i64
  %93 = getelementptr inbounds i8, ptr %91, i64 %92
  store ptr %93, ptr %7, align 8
  %94 = load ptr, ptr %3, align 8
  %95 = load i32, ptr %18, align 4
  %96 = sext i32 %95 to i64
  %97 = getelementptr inbounds i32, ptr %94, i64 %96
  %98 = load i32, ptr %97, align 4
  store i32 %98, ptr %10, align 4
  %99 = load ptr, ptr %4, align 8
  %100 = load i32, ptr %18, align 4
  %101 = sext i32 %100 to i64
  %102 = getelementptr inbounds i32, ptr %99, i64 %101
  %103 = load i32, ptr %102, align 4
  store i32 %103, ptr %11, align 4
  %104 = load ptr, ptr %5, align 8
  %105 = load i32, ptr %18, align 4
  %106 = sext i32 %105 to i64
  %107 = getelementptr inbounds i32, ptr %104, i64 %106
  %108 = load i32, ptr %107, align 4
  store i32 %108, ptr %12, align 4
  %109 = load ptr, ptr %6, align 8
  %110 = load i32, ptr %18, align 4
  %111 = sext i32 %110 to i64
  %112 = getelementptr inbounds i32, ptr %109, i64 %111
  %113 = load i32, ptr %112, align 4
  store i32 %113, ptr %13, align 4
  %114 = load ptr, ptr %19, align 8
  %115 = icmp ne ptr %114, null
  br i1 %115, label %116, label %130

116:                                              ; preds = %89
  %117 = load ptr, ptr %19, align 8
  %118 = load i32, ptr %18, align 4
  %119 = mul nsw i32 2, %118
  %120 = sext i32 %119 to i64
  %121 = getelementptr inbounds i32, ptr %117, i64 %120
  %122 = load i32, ptr %121, align 4
  store i32 %122, ptr %16, align 4
  %123 = load ptr, ptr %19, align 8
  %124 = load i32, ptr %18, align 4
  %125 = mul nsw i32 2, %124
  %126 = add nsw i32 %125, 1
  %127 = sext i32 %126 to i64
  %128 = getelementptr inbounds i32, ptr %123, i64 %127
  %129 = load i32, ptr %128, align 4
  store i32 %129, ptr %17, align 4
  br label %130

130:                                              ; preds = %116, %89
  %131 = load i32, ptr %10, align 4
  %132 = load i32, ptr %11, align 4
  %133 = icmp sgt i32 %131, %132
  br i1 %133, label %134, label %135

134:                                              ; preds = %130
  br label %306

135:                                              ; preds = %130
  %136 = load ptr, ptr %7, align 8
  %137 = load i32, ptr %10, align 4
  %138 = mul nsw i32 1, %137
  %139 = sext i32 %138 to i64
  %140 = getelementptr inbounds double, ptr %136, i64 %139
  store ptr %140, ptr %20, align 8
  %141 = load ptr, ptr %7, align 8
  %142 = load i32, ptr %11, align 4
  %143 = sext i32 %142 to i64
  %144 = getelementptr inbounds double, ptr %141, i64 %143
  store ptr %144, ptr %25, align 8
  %145 = load i32, ptr %12, align 4
  %146 = and i32 %145, 65535
  %147 = sitofp i32 %146 to double
  %148 = load double, ptr %26, align 8
  %149 = fmul double %147, %148
  store double %149, ptr %28, align 8
  %150 = load i32, ptr %13, align 4
  %151 = and i32 %150, 65535
  %152 = sitofp i32 %151 to double
  %153 = load double, ptr %26, align 8
  %154 = fmul double %152, %153
  store double %154, ptr %29, align 8
  %155 = load i32, ptr %13, align 4
  %156 = ashr i32 %155, 13
  %157 = and i32 %156, -8
  store i32 %157, ptr %23, align 4
  %158 = load i32, ptr %17, align 4
  %159 = load i32, ptr %13, align 4
  %160 = add nsw i32 %159, %158
  store i32 %160, ptr %13, align 4
  %161 = load i32, ptr %12, align 4
  %162 = ashr i32 %161, 16
  store i32 %162, ptr %22, align 4
  %163 = load i32, ptr %16, align 4
  %164 = load i32, ptr %12, align 4
  %165 = add nsw i32 %164, %163
  store i32 %165, ptr %12, align 4
  %166 = load ptr, ptr %8, align 8
  %167 = load i32, ptr %23, align 4
  %168 = sext i32 %167 to i64
  %169 = getelementptr inbounds i8, ptr %166, i64 %168
  %170 = load ptr, ptr %169, align 8
  %171 = load i32, ptr %22, align 4
  %172 = sext i32 %171 to i64
  %173 = getelementptr inbounds double, ptr %170, i64 %172
  store ptr %173, ptr %21, align 8
  %174 = load double, ptr %28, align 8
  %175 = load double, ptr %29, align 8
  %176 = fmul double %174, %175
  store double %176, ptr %33, align 8
  %177 = load double, ptr %28, align 8
  %178 = fsub double 1.000000e+00, %177
  %179 = load double, ptr %29, align 8
  %180 = fmul double %178, %179
  store double %180, ptr %32, align 8
  %181 = load double, ptr %28, align 8
  %182 = load double, ptr %29, align 8
  %183 = fsub double 1.000000e+00, %182
  %184 = fmul double %181, %183
  store double %184, ptr %31, align 8
  %185 = load double, ptr %28, align 8
  %186 = fsub double 1.000000e+00, %185
  %187 = load double, ptr %29, align 8
  %188 = fsub double 1.000000e+00, %187
  %189 = fmul double %186, %188
  store double %189, ptr %30, align 8
  %190 = load ptr, ptr %21, align 8
  %191 = getelementptr inbounds double, ptr %190, i64 0
  %192 = load double, ptr %191, align 8
  store double %192, ptr %34, align 8
  %193 = load ptr, ptr %21, align 8
  %194 = getelementptr inbounds double, ptr %193, i64 1
  %195 = load double, ptr %194, align 8
  store double %195, ptr %35, align 8
  %196 = load ptr, ptr %21, align 8
  %197 = load i32, ptr %24, align 4
  %198 = sext i32 %197 to i64
  %199 = getelementptr inbounds double, ptr %196, i64 %198
  %200 = load double, ptr %199, align 8
  store double %200, ptr %36, align 8
  %201 = load ptr, ptr %21, align 8
  %202 = load i32, ptr %27, align 4
  %203 = sext i32 %202 to i64
  %204 = getelementptr inbounds double, ptr %201, i64 %203
  %205 = load double, ptr %204, align 8
  store double %205, ptr %37, align 8
  br label %206

206:                                              ; preds = %287, %135
  %207 = load ptr, ptr %20, align 8
  %208 = load ptr, ptr %25, align 8
  %209 = icmp ult ptr %207, %208
  br i1 %209, label %210, label %290

210:                                              ; preds = %206
  %211 = load double, ptr %30, align 8
  %212 = load double, ptr %34, align 8
  %213 = load double, ptr %31, align 8
  %214 = load double, ptr %35, align 8
  %215 = fmul double %213, %214
  %216 = call double @llvm.fmuladd.f64(double %211, double %212, double %215)
  %217 = load double, ptr %32, align 8
  %218 = load double, ptr %36, align 8
  %219 = call double @llvm.fmuladd.f64(double %217, double %218, double %216)
  %220 = load double, ptr %33, align 8
  %221 = load double, ptr %37, align 8
  %222 = call double @llvm.fmuladd.f64(double %220, double %221, double %219)
  store double %222, ptr %38, align 8
  %223 = load i32, ptr %12, align 4
  %224 = and i32 %223, 65535
  %225 = sitofp i32 %224 to double
  %226 = load double, ptr %26, align 8
  %227 = fmul double %225, %226
  store double %227, ptr %28, align 8
  %228 = load i32, ptr %13, align 4
  %229 = and i32 %228, 65535
  %230 = sitofp i32 %229 to double
  %231 = load double, ptr %26, align 8
  %232 = fmul double %230, %231
  store double %232, ptr %29, align 8
  %233 = load i32, ptr %13, align 4
  %234 = ashr i32 %233, 13
  %235 = and i32 %234, -8
  store i32 %235, ptr %23, align 4
  %236 = load i32, ptr %17, align 4
  %237 = load i32, ptr %13, align 4
  %238 = add nsw i32 %237, %236
  store i32 %238, ptr %13, align 4
  %239 = load i32, ptr %12, align 4
  %240 = ashr i32 %239, 16
  store i32 %240, ptr %22, align 4
  %241 = load i32, ptr %16, align 4
  %242 = load i32, ptr %12, align 4
  %243 = add nsw i32 %242, %241
  store i32 %243, ptr %12, align 4
  %244 = load ptr, ptr %8, align 8
  %245 = load i32, ptr %23, align 4
  %246 = sext i32 %245 to i64
  %247 = getelementptr inbounds i8, ptr %244, i64 %246
  %248 = load ptr, ptr %247, align 8
  %249 = load i32, ptr %22, align 4
  %250 = sext i32 %249 to i64
  %251 = getelementptr inbounds double, ptr %248, i64 %250
  store ptr %251, ptr %21, align 8
  %252 = load double, ptr %28, align 8
  %253 = load double, ptr %29, align 8
  %254 = fmul double %252, %253
  store double %254, ptr %33, align 8
  %255 = load double, ptr %28, align 8
  %256 = fsub double 1.000000e+00, %255
  %257 = load double, ptr %29, align 8
  %258 = fmul double %256, %257
  store double %258, ptr %32, align 8
  %259 = load double, ptr %28, align 8
  %260 = load double, ptr %29, align 8
  %261 = fsub double 1.000000e+00, %260
  %262 = fmul double %259, %261
  store double %262, ptr %31, align 8
  %263 = load double, ptr %28, align 8
  %264 = fsub double 1.000000e+00, %263
  %265 = load double, ptr %29, align 8
  %266 = fsub double 1.000000e+00, %265
  %267 = fmul double %264, %266
  store double %267, ptr %30, align 8
  %268 = load ptr, ptr %21, align 8
  %269 = getelementptr inbounds double, ptr %268, i64 0
  %270 = load double, ptr %269, align 8
  store double %270, ptr %34, align 8
  %271 = load ptr, ptr %21, align 8
  %272 = getelementptr inbounds double, ptr %271, i64 1
  %273 = load double, ptr %272, align 8
  store double %273, ptr %35, align 8
  %274 = load ptr, ptr %21, align 8
  %275 = load i32, ptr %24, align 4
  %276 = sext i32 %275 to i64
  %277 = getelementptr inbounds double, ptr %274, i64 %276
  %278 = load double, ptr %277, align 8
  store double %278, ptr %36, align 8
  %279 = load ptr, ptr %21, align 8
  %280 = load i32, ptr %27, align 4
  %281 = sext i32 %280 to i64
  %282 = getelementptr inbounds double, ptr %279, i64 %281
  %283 = load double, ptr %282, align 8
  store double %283, ptr %37, align 8
  %284 = load double, ptr %38, align 8
  %285 = load ptr, ptr %20, align 8
  %286 = getelementptr inbounds double, ptr %285, i64 0
  store double %284, ptr %286, align 8
  br label %287

287:                                              ; preds = %210
  %288 = load ptr, ptr %20, align 8
  %289 = getelementptr inbounds double, ptr %288, i32 1
  store ptr %289, ptr %20, align 8
  br label %206, !llvm.loop !6

290:                                              ; preds = %206
  %291 = load double, ptr %30, align 8
  %292 = load double, ptr %34, align 8
  %293 = load double, ptr %31, align 8
  %294 = load double, ptr %35, align 8
  %295 = fmul double %293, %294
  %296 = call double @llvm.fmuladd.f64(double %291, double %292, double %295)
  %297 = load double, ptr %32, align 8
  %298 = load double, ptr %36, align 8
  %299 = call double @llvm.fmuladd.f64(double %297, double %298, double %296)
  %300 = load double, ptr %33, align 8
  %301 = load double, ptr %37, align 8
  %302 = call double @llvm.fmuladd.f64(double %300, double %301, double %299)
  store double %302, ptr %38, align 8
  %303 = load double, ptr %38, align 8
  %304 = load ptr, ptr %20, align 8
  %305 = getelementptr inbounds double, ptr %304, i64 0
  store double %303, ptr %305, align 8
  br label %306

306:                                              ; preds = %290, %134
  %307 = load i32, ptr %18, align 4
  %308 = add nsw i32 %307, 1
  store i32 %308, ptr %18, align 4
  br label %85, !llvm.loop !8

309:                                              ; preds = %85
  ret i32 0
}