; Function Attrs: nofree norecurse nosync nounwind memory(readwrite, inaccessiblemem: none) uwtable
define hidden noundef i32 @mlib_ImageAffine_d64_1ch_bl(ptr nocapture noundef readonly %0) local_unnamed_addr #0 {
  %2 = getelementptr inbounds i8, ptr %0, i64 40
  %3 = load ptr, ptr %2, align 8
  %4 = getelementptr inbounds i8, ptr %0, i64 48
  %5 = load ptr, ptr %4, align 8
  %6 = getelementptr inbounds i8, ptr %0, i64 56
  %7 = load ptr, ptr %6, align 8
  %8 = getelementptr inbounds i8, ptr %0, i64 64
  %9 = load ptr, ptr %8, align 8
  %10 = getelementptr inbounds i8, ptr %0, i64 24
  %11 = load ptr, ptr %10, align 8
  %12 = getelementptr inbounds i8, ptr %0, i64 72
  %13 = load i32, ptr %12, align 8
  %14 = getelementptr inbounds i8, ptr %0, i64 76
  %15 = load i32, ptr %14, align 4
  %16 = getelementptr inbounds i8, ptr %0, i64 104
  %17 = load ptr, ptr %16, align 8
  %.not155 = icmp sgt i32 %13, %15
  br i1 %.not155, label %._crit_edge162, label %.lr.ph161

.lr.ph161:                                        ; preds = %1
  %18 = getelementptr inbounds i8, ptr %0, i64 92
  %19 = load i32, ptr %18, align 4
  %20 = ashr i32 %19, 3
  %21 = add nsw i32 %20, 1
  %22 = getelementptr inbounds i8, ptr %0, i64 84
  %23 = load i32, ptr %22, align 4
  %24 = getelementptr inbounds i8, ptr %0, i64 80
  %25 = load i32, ptr %24, align 8
  %26 = getelementptr inbounds i8, ptr %0, i64 96
  %27 = load i32, ptr %26, align 8
  %28 = getelementptr inbounds i8, ptr %0, i64 32
  %29 = load ptr, ptr %28, align 8
  %30 = sext i32 %27 to i64
  %.not134 = icmp eq ptr %17, null
  %31 = sext i32 %20 to i64
  %32 = sext i32 %21 to i64
  %33 = sext i32 %13 to i64
  %34 = add i32 %15, 1
  br label %35

35:                                               ; preds = %.lr.ph161, %124
  %indvars.iv = phi i64 [ %33, %.lr.ph161 ], [ %indvars.iv.next, %124 ]
  %.0123159 = phi ptr [ %29, %.lr.ph161 ], [ %36, %124 ]
  %.0127158 = phi i32 [ %25, %.lr.ph161 ], [ %.1, %124 ]
  %.0129156 = phi i32 [ %23, %.lr.ph161 ], [ %.1130, %124 ]
  %36 = getelementptr inbounds i8, ptr %.0123159, i64 %30
  %37 = getelementptr inbounds i32, ptr %3, i64 %indvars.iv
  %38 = load i32, ptr %37, align 4
  %39 = getelementptr inbounds i32, ptr %5, i64 %indvars.iv
  %40 = load i32, ptr %39, align 4
  %41 = getelementptr inbounds i32, ptr %7, i64 %indvars.iv
  %42 = load i32, ptr %41, align 4
  %43 = getelementptr inbounds i32, ptr %9, i64 %indvars.iv
  %44 = load i32, ptr %43, align 4
  br i1 %.not134, label %52, label %45

45:                                               ; preds = %35
  %46 = shl nsw i64 %indvars.iv, 1
  %47 = getelementptr inbounds i32, ptr %17, i64 %46
  %48 = load i32, ptr %47, align 4
  %49 = or disjoint i64 %46, 1
  %50 = getelementptr inbounds i32, ptr %17, i64 %49
  %51 = load i32, ptr %50, align 4
  br label %52

52:                                               ; preds = %45, %35
  %.1130 = phi i32 [ %51, %45 ], [ %.0129156, %35 ]
  %.1 = phi i32 [ %48, %45 ], [ %.0127158, %35 ]
  %53 = icmp sgt i32 %38, %40
  br i1 %53, label %124, label %54

54:                                               ; preds = %52
  %55 = sext i32 %38 to i64
  %56 = getelementptr inbounds double, ptr %36, i64 %55
  %57 = sext i32 %40 to i64
  %58 = getelementptr inbounds double, ptr %36, i64 %57
  %59 = and i32 %42, 65535
  %60 = uitofp nneg i32 %59 to double
  %61 = fmul double %60, 0x3EF0000000000000
  %62 = and i32 %44, 65535
  %63 = uitofp nneg i32 %62 to double
  %64 = fmul double %63, 0x3EF0000000000000
  %65 = ashr i32 %44, 13
  %66 = and i32 %65, -8
  %67 = ashr i32 %42, 16
  %68 = sext i32 %66 to i64
  %69 = getelementptr inbounds i8, ptr %11, i64 %68
  %70 = load ptr, ptr %69, align 8
  %71 = sext i32 %67 to i64
  %72 = getelementptr inbounds double, ptr %70, i64 %71
  %73 = fmul double %61, %64
  %74 = fsub double 1.000000e+00, %61
  %75 = fmul double %74, %64
  %76 = fsub double 1.000000e+00, %64
  %77 = fmul double %61, %76
  %78 = fmul double %74, %76
  %79 = load double, ptr %72, align 8
  %80 = getelementptr inbounds i8, ptr %72, i64 8
  %81 = load double, ptr %80, align 8
  %82 = getelementptr inbounds double, ptr %72, i64 %31
  %83 = load double, ptr %82, align 8
  %84 = getelementptr inbounds double, ptr %72, i64 %32
  %85 = load double, ptr %84, align 8
  %86 = icmp slt i32 %38, %40
  br i1 %86, label %.lr.ph, label %._crit_edge

.lr.ph:                                           ; preds = %54, %.lr.ph
  %.0146 = phi double [ %117, %.lr.ph ], [ %85, %54 ]
  %.0116145 = phi double [ %115, %.lr.ph ], [ %83, %54 ]
  %.0117144 = phi double [ %113, %.lr.ph ], [ %81, %54 ]
  %.0118143 = phi double [ %111, %.lr.ph ], [ %79, %54 ]
  %.0119142 = phi double [ %105, %.lr.ph ], [ %73, %54 ]
  %.0120141 = phi double [ %107, %.lr.ph ], [ %75, %54 ]
  %.0121140 = phi double [ %109, %.lr.ph ], [ %77, %54 ]
  %.0122139 = phi double [ %110, %.lr.ph ], [ %78, %54 ]
  %.pn135138 = phi i32 [ %.0124, %.lr.ph ], [ %42, %54 ]
  %.pn137 = phi i32 [ %.0125, %.lr.ph ], [ %44, %54 ]
  %.0126136 = phi ptr [ %118, %.lr.ph ], [ %56, %54 ]
  %.0124 = add nsw i32 %.pn135138, %.1
  %.0125 = add nsw i32 %.pn137, %.1130
  %87 = fmul double %.0121140, %.0117144
  %88 = tail call double @llvm.fmuladd.f64(double %.0122139, double %.0118143, double %87)
  %89 = tail call double @llvm.fmuladd.f64(double %.0120141, double %.0116145, double %88)
  %90 = tail call double @llvm.fmuladd.f64(double %.0119142, double %.0146, double %89)
  %91 = and i32 %.0124, 65535
  %92 = uitofp nneg i32 %91 to double
  %93 = fmul double %92, 0x3EF0000000000000
  %94 = and i32 %.0125, 65535
  %95 = uitofp nneg i32 %94 to double
  %96 = fmul double %95, 0x3EF0000000000000
  %97 = ashr i32 %.0125, 13
  %98 = and i32 %97, -8
  %99 = ashr i32 %.0124, 16
  %100 = sext i32 %98 to i64
  %101 = getelementptr inbounds i8, ptr %11, i64 %100
  %102 = load ptr, ptr %101, align 8
  %103 = sext i32 %99 to i64
  %104 = getelementptr inbounds double, ptr %102, i64 %103
  %105 = fmul double %96, %93
  %106 = fsub double 1.000000e+00, %93
  %107 = fmul double %96, %106
  %108 = fsub double 1.000000e+00, %96
  %109 = fmul double %93, %108
  %110 = fmul double %108, %106
  %111 = load double, ptr %104, align 8
  %112 = getelementptr inbounds i8, ptr %104, i64 8
  %113 = load double, ptr %112, align 8
  %114 = getelementptr inbounds double, ptr %104, i64 %31
  %115 = load double, ptr %114, align 8
  %116 = getelementptr inbounds double, ptr %104, i64 %32
  %117 = load double, ptr %116, align 8
  store double %90, ptr %.0126136, align 8
  %118 = getelementptr inbounds i8, ptr %.0126136, i64 8
  %119 = icmp ult ptr %118, %58
  br i1 %119, label %.lr.ph, label %._crit_edge, !llvm.loop !6

._crit_edge:                                      ; preds = %.lr.ph, %54
  %.0126.lcssa = phi ptr [ %56, %54 ], [ %118, %.lr.ph ]
  %.0122.lcssa = phi double [ %78, %54 ], [ %110, %.lr.ph ]
  %.0121.lcssa = phi double [ %77, %54 ], [ %109, %.lr.ph ]
  %.0120.lcssa = phi double [ %75, %54 ], [ %107, %.lr.ph ]
  %.0119.lcssa = phi double [ %73, %54 ], [ %105, %.lr.ph ]
  %.0118.lcssa = phi double [ %79, %54 ], [ %111, %.lr.ph ]
  %.0117.lcssa = phi double [ %81, %54 ], [ %113, %.lr.ph ]
  %.0116.lcssa = phi double [ %83, %54 ], [ %115, %.lr.ph ]
  %.0.lcssa = phi double [ %85, %54 ], [ %117, %.lr.ph ]
  %120 = fmul double %.0121.lcssa, %.0117.lcssa
  %121 = tail call double @llvm.fmuladd.f64(double %.0122.lcssa, double %.0118.lcssa, double %120)
  %122 = tail call double @llvm.fmuladd.f64(double %.0120.lcssa, double %.0116.lcssa, double %121)
  %123 = tail call double @llvm.fmuladd.f64(double %.0119.lcssa, double %.0.lcssa, double %122)
  store double %123, ptr %.0126.lcssa, align 8
  br label %124

124:                                              ; preds = %52, %._crit_edge
  %indvars.iv.next = add nsw i64 %indvars.iv, 1
  %lftr.wideiv = trunc i64 %indvars.iv.next to i32
  %exitcond.not = icmp eq i32 %34, %lftr.wideiv
  br i1 %exitcond.not, label %._crit_edge162, label %35, !llvm.loop !8

._crit_edge162:                                   ; preds = %124, %1
  ret i32 0
}